target datalayout = "e-m:e-p270:32:32-p271:32:32-p272:64:64-i64:64-i128:128-f80:128-n8:16:32:64-S128"
target triple = "x86_64-pc-linux-gnu"

%struct._lv_line_t = type { %struct._lv_obj_t, %union.anon, i32, i8 }
%struct._lv_obj_t = type { ptr, ptr, ptr, ptr, ptr, %struct.lv_area_t, i32, i16, i16 }
%struct.lv_area_t = type { i32, i32, i32, i32 }
%union.anon = type { ptr }

; Function Attrs: nounwind uwtable
define void @lv_line_set_y_invert(ptr noundef %0, i1 noundef zeroext %1) #0 {
  %3 = alloca ptr, align 8
  %4 = alloca i8, align 1
  %5 = alloca ptr, align 8
  %6 = alloca i32, align 4
  store ptr %0, ptr %3, align 8, !tbaa !3
  %7 = zext i1 %1 to i8
  store i8 %7, ptr %4, align 1, !tbaa !35
  br label %8

8:                                                ; preds = %2
  br label %9

9:                                                ; preds = %8
  call void @llvm.lifetime.start.p0(i64 8, ptr %5) #4
  %10 = load ptr, ptr %3, align 8, !tbaa !3
  store ptr %10, ptr %5, align 8, !tbaa !3
  %11 = load ptr, ptr %5, align 8, !tbaa !3
  %12 = getelementptr inbounds nuw %struct._lv_line_t, ptr %11, i32 0, i32 3
  %13 = load i8, ptr %12, align 4
  %14 = and i8 %13, 1
  %15 = zext i8 %14 to i32
  %16 = load i8, ptr %4, align 1, !tbaa !35, !range !37, !noundef !38
  %17 = trunc i8 %16 to i1
  %18 = zext i1 %17 to i32
  %19 = icmp eq i32 %15, %18
  br i1 %19, label %20, label %21

20:                                               ; preds = %9
  store i32 1, ptr %6, align 4
  br label %33

21:                                               ; preds = %9
  %22 = load i8, ptr %4, align 1, !tbaa !35, !range !37, !noundef !38
  %23 = trunc i8 %22 to i1
  %24 = select i1 %23, i32 1, i32 0
  %25 = load ptr, ptr %5, align 8, !tbaa !3
  %26 = getelementptr inbounds nuw %struct._lv_line_t, ptr %25, i32 0, i32 3
  %27 = trunc i32 %24 to i8
  %28 = load i8, ptr %26, align 4
  %29 = and i8 %27, 1
  %30 = and i8 %28, -2
  %31 = or i8 %30, %29
  store i8 %31, ptr %26, align 4
  %32 = load ptr, ptr %3, align 8, !tbaa !3
  call void @lv_obj_invalidate(ptr noundef %32)
  store i32 0, ptr %6, align 4
  br label %33

33:                                               ; preds = %21, %20
  call void @llvm.lifetime.end.p0(i64 8, ptr %5) #4
  %34 = load i32, ptr %6, align 4
  switch i32 %34, label %36 [
    i32 0, label %35
    i32 1, label %35
  ]

35:                                               ; preds = %33, %33
  ret void

36:                                               ; preds = %33
  unreachable
}