; Function Attrs: nounwind uwtable
define void @lv_line_set_y_invert(ptr noundef %0, i1 noundef zeroext %1) local_unnamed_addr #0 {
  %3 = getelementptr inbounds nuw i8, ptr %0, i64 76
  %4 = load i8, ptr %3, align 4
  %5 = trunc i8 %4 to i1
  %6 = xor i1 %1, %5
  br i1 %6, label %7, label %11

7:                                                ; preds = %2
  %8 = zext i1 %1 to i8
  %9 = and i8 %4, -2
  %10 = or disjoint i8 %9, %8
  store i8 %10, ptr %3, align 4
  tail call void @lv_obj_invalidate(ptr noundef nonnull %0) #5
  br label %11

11:                                               ; preds = %2, %7
  ret void
}